target datalayout = "e-m:e-p270:32:32-p271:32:32-p272:64:64-i64:64-i128:128-f80:128-n8:16:32:64-S128"
target triple = "x86_64-pc-linux-gnu"

%struct.TupleDescData = type { i32, i32, i32, i32, ptr, [0 x %struct.CompactAttribute] }
%struct.CompactAttribute = type { i32, i16, i8, i8, i8, i8, i8, i8, i8 }
%struct.TupleConstr = type { ptr, ptr, ptr, i16, i16, i8, i8, i8 }
%struct.AttrDefault = type { i16, ptr }

; Function Attrs: nounwind uwtable
define dso_local ptr @TupleDescGetDefault(ptr noundef %0, i16 noundef signext %1) #0 {
  %3 = alloca ptr, align 8
  %4 = alloca i16, align 2
  %5 = alloca ptr, align 8
  %6 = alloca ptr, align 8
  %7 = alloca i32, align 4
  %8 = alloca i32, align 4
  store ptr %0, ptr %3, align 8
  store i16 %1, ptr %4, align 2
  call void @llvm.lifetime.start.p0(i64 8, ptr %5) #8
  store ptr null, ptr %5, align 8
  %9 = load ptr, ptr %3, align 8
  %10 = getelementptr inbounds nuw %struct.TupleDescData, ptr %9, i32 0, i32 4
  %11 = load ptr, ptr %10, align 8
  %12 = icmp ne ptr %11, null
  br i1 %12, label %13, label %54

13:                                               ; preds = %2
  call void @llvm.lifetime.start.p0(i64 8, ptr %6) #8
  %14 = load ptr, ptr %3, align 8
  %15 = getelementptr inbounds nuw %struct.TupleDescData, ptr %14, i32 0, i32 4
  %16 = load ptr, ptr %15, align 8
  %17 = getelementptr inbounds nuw %struct.TupleConstr, ptr %16, i32 0, i32 0
  %18 = load ptr, ptr %17, align 8
  store ptr %18, ptr %6, align 8
  call void @llvm.lifetime.start.p0(i64 4, ptr %7) #8
  store i32 0, ptr %7, align 4
  br label %19

19:                                               ; preds = %49, %13
  %20 = load i32, ptr %7, align 4
  %21 = load ptr, ptr %3, align 8
  %22 = getelementptr inbounds nuw %struct.TupleDescData, ptr %21, i32 0, i32 4
  %23 = load ptr, ptr %22, align 8
  %24 = getelementptr inbounds nuw %struct.TupleConstr, ptr %23, i32 0, i32 3
  %25 = load i16, ptr %24, align 8
  %26 = zext i16 %25 to i32
  %27 = icmp slt i32 %20, %26
  br i1 %27, label %29, label %28

28:                                               ; preds = %19
  store i32 2, ptr %8, align 4
  br label %52

29:                                               ; preds = %19
  %30 = load ptr, ptr %6, align 8
  %31 = load i32, ptr %7, align 4
  %32 = sext i32 %31 to i64
  %33 = getelementptr inbounds %struct.AttrDefault, ptr %30, i64 %32
  %34 = getelementptr inbounds nuw %struct.AttrDefault, ptr %33, i32 0, i32 0
  %35 = load i16, ptr %34, align 8
  %36 = sext i16 %35 to i32
  %37 = load i16, ptr %4, align 2
  %38 = sext i16 %37 to i32
  %39 = icmp eq i32 %36, %38
  br i1 %39, label %40, label %48

40:                                               ; preds = %29
  %41 = load ptr, ptr %6, align 8
  %42 = load i32, ptr %7, align 4
  %43 = sext i32 %42 to i64
  %44 = getelementptr inbounds %struct.AttrDefault, ptr %41, i64 %43
  %45 = getelementptr inbounds nuw %struct.AttrDefault, ptr %44, i32 0, i32 1
  %46 = load ptr, ptr %45, align 8
  %47 = call ptr @stringToNode(ptr noundef %46)
  store ptr %47, ptr %5, align 8
  store i32 2, ptr %8, align 4
  br label %52

48:                                               ; preds = %29
  br label %49

49:                                               ; preds = %48
  %50 = load i32, ptr %7, align 4
  %51 = add i32 %50, 1
  store i32 %51, ptr %7, align 4
  br label %19, !llvm.loop !26

52:                                               ; preds = %40, %28
  call void @llvm.lifetime.end.p0(i64 4, ptr %7) #8
  br label %53

53:                                               ; preds = %52
  call void @llvm.lifetime.end.p0(i64 8, ptr %6) #8
  br label %54

54:                                               ; preds = %53, %2
  %55 = load ptr, ptr %5, align 8
  store i32 1, ptr %8, align 4
  call void @llvm.lifetime.end.p0(i64 8, ptr %5) #8
  ret ptr %55
}