; Function Attrs: nounwind uwtable
define dso_local ptr @TupleDescGetDefault(ptr noundef readonly captures(none) %0, i16 noundef signext %1) local_unnamed_addr #0 {
  %3 = getelementptr inbounds nuw i8, ptr %0, i64 16
  %4 = load ptr, ptr %3, align 8
  %.not = icmp eq ptr %4, null
  br i1 %.not, label %.loopexit, label %5

5:                                                ; preds = %2
  %6 = load ptr, ptr %4, align 8
  %7 = getelementptr inbounds nuw i8, ptr %4, i64 24
  %8 = load i16, ptr %7, align 8
  %.not13 = icmp eq i16 %8, 0
  br i1 %.not13, label %.loopexit, label %.lr.ph.preheader

.lr.ph.preheader:                                 ; preds = %5
  %wide.trip.count = zext i16 %8 to i64
  br label %.lr.ph

9:                                                ; preds = %.lr.ph
  %indvars.iv.next = add nuw nsw i64 %indvars.iv, 1
  %exitcond.not = icmp eq i64 %indvars.iv.next, %wide.trip.count
  br i1 %exitcond.not, label %.loopexit, label %.lr.ph, !llvm.loop !25

.lr.ph:                                           ; preds = %.lr.ph.preheader, %9
  %indvars.iv = phi i64 [ 0, %.lr.ph.preheader ], [ %indvars.iv.next, %9 ]
  %10 = getelementptr inbounds nuw %struct.AttrDefault, ptr %6, i64 %indvars.iv
  %11 = load i16, ptr %10, align 8
  %12 = icmp eq i16 %11, %1
  br i1 %12, label %13, label %9

13:                                               ; preds = %.lr.ph
  %14 = getelementptr inbounds nuw i8, ptr %10, i64 8
  %15 = load ptr, ptr %14, align 8
  %16 = tail call ptr @stringToNode(ptr noundef %15) #11
  br label %.loopexit

.loopexit:                                        ; preds = %9, %5, %13, %2
  %.010 = phi ptr [ null, %2 ], [ %16, %13 ], [ null, %5 ], [ null, %9 ]
  ret ptr %.010
}